target datalayout = "e-m:e-p270:32:32-p271:32:32-p272:64:64-i64:64-i128:128-f80:128-n8:16:32:64-S128"
target triple = "x86_64-unknown-linux-gnu"

%"struct.rocksdb::OptimisticTransactionOptions" = type { i8, ptr }

; Function Attrs: mustprogress uwtable
define void @_ZN7rocksdb21OptimisticTransaction10InitializeERKNS_28OptimisticTransactionOptionsE(ptr noundef nonnull align 8 dereferenceable(328) %this, ptr noundef nonnull align 8 dereferenceable(16) %txn_options) #0 align 2 {
entry:
  %this.addr = alloca ptr, align 8
  %txn_options.addr = alloca ptr, align 8
  store ptr %this, ptr %this.addr, align 8
  store ptr %txn_options, ptr %txn_options.addr, align 8
  %this1 = load ptr, ptr %this.addr, align 8
  %0 = load ptr, ptr %txn_options.addr, align 8
  %set_snapshot = getelementptr inbounds %"struct.rocksdb::OptimisticTransactionOptions", ptr %0, i32 0, i32 0
  %1 = load i8, ptr %set_snapshot, align 8
  %tobool = trunc i8 %1 to i1
  br i1 %tobool, label %if.then, label %if.end

if.then:                                          ; preds = %entry
  %vtable = load ptr, ptr %this1, align 8
  %vfn = getelementptr inbounds ptr, ptr %vtable, i64 2
  %2 = load ptr, ptr %vfn, align 8
  call void %2(ptr noundef nonnull align 8 dereferenceable(320) %this1)
  br label %if.end

if.end:                                           ; preds = %if.then, %entry
  ret void
}

; Function Attrs: mustprogress uwtable
define void @_ZN7rocksdb21OptimisticTransaction12ReinitializeEPNS_23OptimisticTransactionDBERKNS_12WriteOptionsERKNS_28OptimisticTransactionOptionsE(ptr noundef nonnull align 8 dereferenceable(328) %this, ptr noundef %txn_db, ptr noundef nonnull align 8 dereferenceable(24) %write_options, ptr noundef nonnull align 8 dereferenceable(16) %txn_options) #0 align 2 {
entry:
  %this.addr = alloca ptr, align 8
  %txn_db.addr = alloca ptr, align 8
  %write_options.addr = alloca ptr, align 8
  %txn_options.addr = alloca ptr, align 8
  store ptr %this, ptr %this.addr, align 8
  store ptr %txn_db, ptr %txn_db.addr, align 8
  store ptr %write_options, ptr %write_options.addr, align 8
  store ptr %txn_options, ptr %txn_options.addr, align 8
  %this1 = load ptr, ptr %this.addr, align 8
  %0 = load ptr, ptr %txn_db.addr, align 8
  %vtable = load ptr, ptr %0, align 8
  %vfn = getelementptr inbounds ptr, ptr %vtable, i64 150
  %1 = load ptr, ptr %vfn, align 8
  %call = call noundef ptr %1(ptr noundef nonnull align 8 dereferenceable(32) %0)
  %2 = load ptr, ptr %write_options.addr, align 8
  call void @_ZN7rocksdb19TransactionBaseImpl12ReinitializeEPNS_2DBERKNS_12WriteOptionsE(ptr noundef nonnull align 8 dereferenceable(320) %this1, ptr noundef %call, ptr noundef nonnull align 8 dereferenceable(24) %2)
  %3 = load ptr, ptr %txn_options.addr, align 8
  call void @_ZN7rocksdb21OptimisticTransaction10InitializeERKNS_28OptimisticTransactionOptionsE(ptr noundef nonnull align 8 dereferenceable(328) %this1, ptr noundef nonnull align 8 dereferenceable(16) %3)
  ret void
}