; Function Attrs: mustprogress uwtable
define void @_ZN7rocksdb21OptimisticTransaction12ReinitializeEPNS_23OptimisticTransactionDBERKNS_12WriteOptionsERKNS_28OptimisticTransactionOptionsE(ptr noundef nonnull align 8 dereferenceable(328) %this, ptr noundef %txn_db, ptr noundef nonnull align 8 dereferenceable(24) %write_options, ptr nocapture noundef nonnull readonly align 8 dereferenceable(16) %txn_options) local_unnamed_addr #2 align 2 {
entry:
  %vtable = load ptr, ptr %txn_db, align 8
  %vfn = getelementptr inbounds i8, ptr %vtable, i64 1200
  %0 = load ptr, ptr %vfn, align 8
  %call = tail call noundef ptr %0(ptr noundef nonnull align 8 dereferenceable(32) %txn_db)
  tail call void @_ZN7rocksdb19TransactionBaseImpl12ReinitializeEPNS_2DBERKNS_12WriteOptionsE(ptr noundef nonnull align 8 dereferenceable(320) %this, ptr noundef %call, ptr noundef nonnull align 8 dereferenceable(24) %write_options)
  %1 = load i8, ptr %txn_options, align 8
  %2 = and i8 %1, 1
  %tobool.not.i = icmp eq i8 %2, 0
  br i1 %tobool.not.i, label %_ZN7rocksdb21OptimisticTransaction10InitializeERKNS_28OptimisticTransactionOptionsE.exit, label %if.then.i

if.then.i:                                        ; preds = %entry
  %vtable.i = load ptr, ptr %this, align 8
  %vfn.i = getelementptr inbounds i8, ptr %vtable.i, i64 16
  %3 = load ptr, ptr %vfn.i, align 8
  tail call void %3(ptr noundef nonnull align 8 dereferenceable(320) %this)
  br label %_ZN7rocksdb21OptimisticTransaction10InitializeERKNS_28OptimisticTransactionOptionsE.exit

_ZN7rocksdb21OptimisticTransaction10InitializeERKNS_28OptimisticTransactionOptionsE.exit: ; preds = %entry, %if.then.i
  ret void
}